target datalayout = "e-m:e-p270:32:32-p271:32:32-p272:64:64-i64:64-i128:128-f80:128-n8:16:32:64-S128"
target triple = "x86_64-pc-linux-gnu"

%struct.strvec = type { ptr, i64, i64 }
%struct.column_options = type { i32, i32, ptr, ptr }
%struct.child_process = type { %struct.strvec, %struct.strvec, i32, i32, i64, ptr, ptr, i32, i32, i32, ptr, i16, ptr }

@.str = private unnamed_addr constant [9 x i8] c"column.c\00", align 1
@.str.1 = private unnamed_addr constant [29 x i8] c"padding must be non-negative\00", align 1
@fd_out = internal global i32 -1, align 4
@.str.7 = private unnamed_addr constant [7 x i8] c"column\00", align 1
@.str.8 = private unnamed_addr constant [14 x i8] c"--raw-mode=%d\00", align 1
@.str.9 = private unnamed_addr constant [11 x i8] c"--width=%d\00", align 1
@.str.10 = private unnamed_addr constant [12 x i8] c"--indent=%s\00", align 1
@.str.11 = private unnamed_addr constant [13 x i8] c"--padding=%d\00", align 1
@stdout = external global ptr, align 8

; Function Attrs: nounwind uwtable
define dso_local i32 @run_column_filter(i32 noundef %0, ptr noundef %1) #0 {
  %3 = alloca i32, align 4
  %4 = alloca i32, align 4
  %5 = alloca ptr, align 8
  %6 = alloca ptr, align 8
  %7 = alloca i32, align 4
  store i32 %0, ptr %4, align 4, !tbaa !9
  store ptr %1, ptr %5, align 8, !tbaa !11
  call void @llvm.lifetime.start.p0(i64 8, ptr %6) #9
  %8 = load ptr, ptr %5, align 8, !tbaa !11
  %9 = icmp ne ptr %8, null
  br i1 %9, label %10, label %16

10:                                               ; preds = %2
  %11 = load ptr, ptr %5, align 8, !tbaa !11
  %12 = getelementptr inbounds nuw %struct.column_options, ptr %11, i32 0, i32 1
  %13 = load i32, ptr %12, align 4, !tbaa !13
  %14 = icmp sgt i32 0, %13
  br i1 %14, label %15, label %16

15:                                               ; preds = %10
  call void (ptr, i32, ptr, ...) @BUG_fl(ptr noundef @.str, i32 noundef 369, ptr noundef @.str.1) #10
  unreachable

16:                                               ; preds = %10, %2
  %17 = load i32, ptr @fd_out, align 4, !tbaa !9
  %18 = icmp ne i32 %17, -1
  br i1 %18, label %19, label %20

19:                                               ; preds = %16
  store i32 -1, ptr %3, align 4
  store i32 1, ptr %7, align 4
  br label %84

20:                                               ; preds = %16
  call void @child_process_init(ptr noundef @column_process)
  store ptr @column_process, ptr %6, align 8, !tbaa !51
  %21 = load ptr, ptr %6, align 8, !tbaa !51
  %22 = call ptr @strvec_push(ptr noundef %21, ptr noundef @.str.7)
  %23 = load ptr, ptr %6, align 8, !tbaa !51
  %24 = load i32, ptr %4, align 4, !tbaa !9
  %25 = call ptr (ptr, ptr, ...) @strvec_pushf(ptr noundef %23, ptr noundef @.str.8, i32 noundef %24)
  %26 = load ptr, ptr %5, align 8, !tbaa !11
  %27 = icmp ne ptr %26, null
  br i1 %27, label %28, label %39

28:                                               ; preds = %20
  %29 = load ptr, ptr %5, align 8, !tbaa !11
  %30 = getelementptr inbounds nuw %struct.column_options, ptr %29, i32 0, i32 0
  %31 = load i32, ptr %30, align 8, !tbaa !22
  %32 = icmp ne i32 %31, 0
  br i1 %32, label %33, label %39

33:                                               ; preds = %28
  %34 = load ptr, ptr %6, align 8, !tbaa !51
  %35 = load ptr, ptr %5, align 8, !tbaa !11
  %36 = getelementptr inbounds nuw %struct.column_options, ptr %35, i32 0, i32 0
  %37 = load i32, ptr %36, align 8, !tbaa !22
  %38 = call ptr (ptr, ptr, ...) @strvec_pushf(ptr noundef %34, ptr noundef @.str.9, i32 noundef %37)
  br label %39

39:                                               ; preds = %33, %28, %20
  %40 = load ptr, ptr %5, align 8, !tbaa !11
  %41 = icmp ne ptr %40, null
  br i1 %41, label %42, label %53

42:                                               ; preds = %39
  %43 = load ptr, ptr %5, align 8, !tbaa !11
  %44 = getelementptr inbounds nuw %struct.column_options, ptr %43, i32 0, i32 2
  %45 = load ptr, ptr %44, align 8, !tbaa !20
  %46 = icmp ne ptr %45, null
  br i1 %46, label %47, label %53

47:                                               ; preds = %42
  %48 = load ptr, ptr %6, align 8, !tbaa !51
  %49 = load ptr, ptr %5, align 8, !tbaa !11
  %50 = getelementptr inbounds nuw %struct.column_options, ptr %49, i32 0, i32 2
  %51 = load ptr, ptr %50, align 8, !tbaa !20
  %52 = call ptr (ptr, ptr, ...) @strvec_pushf(ptr noundef %48, ptr noundef @.str.10, ptr noundef %51)
  br label %53

53:                                               ; preds = %47, %42, %39
  %54 = load ptr, ptr %5, align 8, !tbaa !11
  %55 = icmp ne ptr %54, null
  br i1 %55, label %56, label %67

56:                                               ; preds = %53
  %57 = load ptr, ptr %5, align 8, !tbaa !11
  %58 = getelementptr inbounds nuw %struct.column_options, ptr %57, i32 0, i32 1
  %59 = load i32, ptr %58, align 4, !tbaa !13
  %60 = icmp ne i32 %59, 0
  br i1 %60, label %61, label %67

61:                                               ; preds = %56
  %62 = load ptr, ptr %6, align 8, !tbaa !51
  %63 = load ptr, ptr %5, align 8, !tbaa !11
  %64 = getelementptr inbounds nuw %struct.column_options, ptr %63, i32 0, i32 1
  %65 = load i32, ptr %64, align 4, !tbaa !13
  %66 = call ptr (ptr, ptr, ...) @strvec_pushf(ptr noundef %62, ptr noundef @.str.11, i32 noundef %65)
  br label %67

67:                                               ; preds = %61, %56, %53
  %68 = load ptr, ptr @stdout, align 8, !tbaa !53
  %69 = call i32 @fflush(ptr noundef %68)
  store i32 -1, ptr getelementptr inbounds nuw (%struct.child_process, ptr @column_process, i32 0, i32 7), align 8, !tbaa !55
  %70 = call i32 @dup(i32 noundef 1) #9
  store i32 %70, ptr getelementptr inbounds nuw (%struct.child_process, ptr @column_process, i32 0, i32 8), align 4, !tbaa !58
  %71 = load i16, ptr getelementptr inbounds nuw (%struct.child_process, ptr @column_process, i32 0, i32 11), align 8
  %72 = and i16 %71, -9
  %73 = or i16 %72, 8
  store i16 %73, ptr getelementptr inbounds nuw (%struct.child_process, ptr @column_process, i32 0, i32 11), align 8
  %74 = call i32 @start_command(ptr noundef @column_process)
  %75 = icmp ne i32 %74, 0
  br i1 %75, label %76, label %77

76:                                               ; preds = %67
  store i32 -2, ptr %3, align 4
  store i32 1, ptr %7, align 4
  br label %84

77:                                               ; preds = %67
  %78 = call i32 @dup(i32 noundef 1) #9
  store i32 %78, ptr @fd_out, align 4, !tbaa !9
  %79 = call i32 @close(i32 noundef 1)
  %80 = load i32, ptr getelementptr inbounds nuw (%struct.child_process, ptr @column_process, i32 0, i32 7), align 8, !tbaa !55
  %81 = call i32 @dup2(i32 noundef %80, i32 noundef 1) #9
  %82 = load i32, ptr getelementptr inbounds nuw (%struct.child_process, ptr @column_process, i32 0, i32 7), align 8, !tbaa !55
  %83 = call i32 @close(i32 noundef %82)
  store i32 0, ptr %3, align 4
  store i32 1, ptr %7, align 4
  br label %84

84:                                               ; preds = %77, %76, %19
  call void @llvm.lifetime.end.p0(i64 8, ptr %6) #9
  %85 = load i32, ptr %3, align 4
  ret i32 %85
}