; Function Attrs: nounwind uwtable
define dso_local range(i32 -2, 1) i32 @run_column_filter(i32 noundef %0, ptr noundef readonly %1) local_unnamed_addr #0 {
  %.not = icmp eq ptr %1, null
  br i1 %.not, label %8, label %3

3:                                                ; preds = %2
  %4 = getelementptr inbounds nuw i8, ptr %1, i64 4
  %5 = load i32, ptr %4, align 4, !tbaa !4
  %6 = icmp slt i32 %5, 0
  br i1 %6, label %7, label %8

7:                                                ; preds = %3
  tail call void (ptr, i32, ptr, ...) @BUG_fl(ptr noundef nonnull @.str, i32 noundef 369, ptr noundef nonnull @.str.1) #9
  unreachable

8:                                                ; preds = %3, %2
  %9 = load i32, ptr @fd_out, align 4, !tbaa !23
  %.not21 = icmp eq i32 %9, -1
  br i1 %.not21, label %10, label %39

10:                                               ; preds = %8
  tail call void @child_process_init(ptr noundef nonnull @column_process) #10
  %11 = tail call ptr @strvec_push(ptr noundef nonnull @column_process, ptr noundef nonnull @.str.7) #10
  %12 = tail call ptr (ptr, ptr, ...) @strvec_pushf(ptr noundef nonnull @column_process, ptr noundef nonnull @.str.8, i32 noundef %0) #10
  br i1 %.not, label %.critedge26, label %13

13:                                               ; preds = %10
  %14 = load i32, ptr %1, align 8, !tbaa !17
  %.not22 = icmp eq i32 %14, 0
  br i1 %.not22, label %17, label %15

15:                                               ; preds = %13
  %16 = tail call ptr (ptr, ptr, ...) @strvec_pushf(ptr noundef nonnull @column_process, ptr noundef nonnull @.str.9, i32 noundef %14) #10
  br label %17

17:                                               ; preds = %13, %15
  %18 = getelementptr inbounds nuw i8, ptr %1, i64 8
  %19 = load ptr, ptr %18, align 8, !tbaa !15
  %.not23 = icmp eq ptr %19, null
  br i1 %.not23, label %.critedge, label %20

20:                                               ; preds = %17
  %21 = tail call ptr (ptr, ptr, ...) @strvec_pushf(ptr noundef nonnull @column_process, ptr noundef nonnull @.str.10, ptr noundef nonnull %19) #10
  br label %.critedge

.critedge:                                        ; preds = %17, %20
  %22 = getelementptr inbounds nuw i8, ptr %1, i64 4
  %23 = load i32, ptr %22, align 4, !tbaa !4
  %.not24 = icmp eq i32 %23, 0
  br i1 %.not24, label %.critedge26, label %24

24:                                               ; preds = %.critedge
  %25 = tail call ptr (ptr, ptr, ...) @strvec_pushf(ptr noundef nonnull @column_process, ptr noundef nonnull @.str.11, i32 noundef %23) #10
  br label %.critedge26

.critedge26:                                      ; preds = %10, %24, %.critedge
  %26 = load ptr, ptr @stdout, align 8, !tbaa !41
  %27 = tail call i32 @fflush(ptr noundef %26)
  store i32 -1, ptr getelementptr inbounds nuw (i8, ptr @column_process, i64 80), align 8, !tbaa !43
  %28 = tail call i32 @dup(i32 noundef 1) #10
  store i32 %28, ptr getelementptr inbounds nuw (i8, ptr @column_process, i64 84), align 4, !tbaa !47
  %29 = load i16, ptr getelementptr inbounds nuw (i8, ptr @column_process, i64 104), align 8
  %30 = or i16 %29, 8
  store i16 %30, ptr getelementptr inbounds nuw (i8, ptr @column_process, i64 104), align 8
  %31 = tail call i32 @start_command(ptr noundef nonnull @column_process) #10
  %.not25 = icmp eq i32 %31, 0
  br i1 %.not25, label %32, label %39

32:                                               ; preds = %.critedge26
  %33 = tail call i32 @dup(i32 noundef 1) #10
  store i32 %33, ptr @fd_out, align 4, !tbaa !23
  %34 = tail call i32 @close(i32 noundef 1) #10
  %35 = load i32, ptr getelementptr inbounds nuw (i8, ptr @column_process, i64 80), align 8, !tbaa !43
  %36 = tail call i32 @dup2(i32 noundef %35, i32 noundef 1) #10
  %37 = load i32, ptr getelementptr inbounds nuw (i8, ptr @column_process, i64 80), align 8, !tbaa !43
  %38 = tail call i32 @close(i32 noundef %37) #10
  br label %39

39:                                               ; preds = %.critedge26, %8, %32
  %.0 = phi i32 [ 0, %32 ], [ -1, %8 ], [ -2, %.critedge26 ]
  ret i32 %.0
}